target datalayout = "e-m:e-p270:32:32-p271:32:32-p272:64:64-i64:64-i128:128-f80:128-n8:16:32:64-S128"
target triple = "x86_64-pc-linux-gnu"

; Function Attrs: nounwind uwtable
define internal void @remove_subset_prefix(ptr noundef %0) #0 {
  %2 = alloca ptr, align 8
  %3 = alloca i32, align 4
  %4 = alloca i32, align 4
  store ptr %0, ptr %2, align 8
  store i32 0, ptr %3, align 4
  store i32 0, ptr %4, align 4
  br label %5

5:                                                ; preds = %118, %1
  %6 = load ptr, ptr %2, align 8
  %7 = load i32, ptr %3, align 4
  %8 = zext i32 %7 to i64
  %9 = getelementptr inbounds i8, ptr %6, i64 %8
  %10 = load i8, ptr %9, align 1
  %11 = sext i8 %10 to i32
  %12 = icmp sle i32 65, %11
  br i1 %12, label %13, label %116

13:                                               ; preds = %5
  %14 = load ptr, ptr %2, align 8
  %15 = load i32, ptr %3, align 4
  %16 = add i32 %15, 1
  store i32 %16, ptr %3, align 4
  %17 = zext i32 %15 to i64
  %18 = getelementptr inbounds i8, ptr %14, i64 %17
  %19 = load i8, ptr %18, align 1
  %20 = sext i8 %19 to i32
  %21 = icmp sle i32 %20, 90
  br i1 %21, label %22, label %116

22:                                               ; preds = %13
  %23 = load ptr, ptr %2, align 8
  %24 = load i32, ptr %3, align 4
  %25 = zext i32 %24 to i64
  %26 = getelementptr inbounds i8, ptr %23, i64 %25
  %27 = load i8, ptr %26, align 1
  %28 = sext i8 %27 to i32
  %29 = icmp sle i32 65, %28
  br i1 %29, label %30, label %116

30:                                               ; preds = %22
  %31 = load ptr, ptr %2, align 8
  %32 = load i32, ptr %3, align 4
  %33 = add i32 %32, 1
  store i32 %33, ptr %3, align 4
  %34 = zext i32 %32 to i64
  %35 = getelementptr inbounds i8, ptr %31, i64 %34
  %36 = load i8, ptr %35, align 1
  %37 = sext i8 %36 to i32
  %38 = icmp sle i32 %37, 90
  br i1 %38, label %39, label %116

39:                                               ; preds = %30
  %40 = load ptr, ptr %2, align 8
  %41 = load i32, ptr %3, align 4
  %42 = zext i32 %41 to i64
  %43 = getelementptr inbounds i8, ptr %40, i64 %42
  %44 = load i8, ptr %43, align 1
  %45 = sext i8 %44 to i32
  %46 = icmp sle i32 65, %45
  br i1 %46, label %47, label %116

47:                                               ; preds = %39
  %48 = load ptr, ptr %2, align 8
  %49 = load i32, ptr %3, align 4
  %50 = add i32 %49, 1
  store i32 %50, ptr %3, align 4
  %51 = zext i32 %49 to i64
  %52 = getelementptr inbounds i8, ptr %48, i64 %51
  %53 = load i8, ptr %52, align 1
  %54 = sext i8 %53 to i32
  %55 = icmp sle i32 %54, 90
  br i1 %55, label %56, label %116

56:                                               ; preds = %47
  %57 = load ptr, ptr %2, align 8
  %58 = load i32, ptr %3, align 4
  %59 = zext i32 %58 to i64
  %60 = getelementptr inbounds i8, ptr %57, i64 %59
  %61 = load i8, ptr %60, align 1
  %62 = sext i8 %61 to i32
  %63 = icmp sle i32 65, %62
  br i1 %63, label %64, label %116

64:                                               ; preds = %56
  %65 = load ptr, ptr %2, align 8
  %66 = load i32, ptr %3, align 4
  %67 = add i32 %66, 1
  store i32 %67, ptr %3, align 4
  %68 = zext i32 %66 to i64
  %69 = getelementptr inbounds i8, ptr %65, i64 %68
  %70 = load i8, ptr %69, align 1
  %71 = sext i8 %70 to i32
  %72 = icmp sle i32 %71, 90
  br i1 %72, label %73, label %116

73:                                               ; preds = %64
  %74 = load ptr, ptr %2, align 8
  %75 = load i32, ptr %3, align 4
  %76 = zext i32 %75 to i64
  %77 = getelementptr inbounds i8, ptr %74, i64 %76
  %78 = load i8, ptr %77, align 1
  %79 = sext i8 %78 to i32
  %80 = icmp sle i32 65, %79
  br i1 %80, label %81, label %116

81:                                               ; preds = %73
  %82 = load ptr, ptr %2, align 8
  %83 = load i32, ptr %3, align 4
  %84 = add i32 %83, 1
  store i32 %84, ptr %3, align 4
  %85 = zext i32 %83 to i64
  %86 = getelementptr inbounds i8, ptr %82, i64 %85
  %87 = load i8, ptr %86, align 1
  %88 = sext i8 %87 to i32
  %89 = icmp sle i32 %88, 90
  br i1 %89, label %90, label %116

90:                                               ; preds = %81
  %91 = load ptr, ptr %2, align 8
  %92 = load i32, ptr %3, align 4
  %93 = zext i32 %92 to i64
  %94 = getelementptr inbounds i8, ptr %91, i64 %93
  %95 = load i8, ptr %94, align 1
  %96 = sext i8 %95 to i32
  %97 = icmp sle i32 65, %96
  br i1 %97, label %98, label %116

98:                                               ; preds = %90
  %99 = load ptr, ptr %2, align 8
  %100 = load i32, ptr %3, align 4
  %101 = add i32 %100, 1
  store i32 %101, ptr %3, align 4
  %102 = zext i32 %100 to i64
  %103 = getelementptr inbounds i8, ptr %99, i64 %102
  %104 = load i8, ptr %103, align 1
  %105 = sext i8 %104 to i32
  %106 = icmp sle i32 %105, 90
  br i1 %106, label %107, label %116

107:                                              ; preds = %98
  %108 = load ptr, ptr %2, align 8
  %109 = load i32, ptr %3, align 4
  %110 = add i32 %109, 1
  store i32 %110, ptr %3, align 4
  %111 = zext i32 %109 to i64
  %112 = getelementptr inbounds i8, ptr %108, i64 %111
  %113 = load i8, ptr %112, align 1
  %114 = sext i8 %113 to i32
  %115 = icmp eq i32 %114, 43
  br label %116

116:                                              ; preds = %107, %98, %90, %81, %73, %64, %56, %47, %39, %30, %22, %13, %5
  %117 = phi i1 [ false, %98 ], [ false, %90 ], [ false, %81 ], [ false, %73 ], [ false, %64 ], [ false, %56 ], [ false, %47 ], [ false, %39 ], [ false, %30 ], [ false, %22 ], [ false, %13 ], [ false, %5 ], [ %115, %107 ]
  br i1 %117, label %118, label %120

118:                                              ; preds = %116
  %119 = load i32, ptr %3, align 4
  store i32 %119, ptr %4, align 4
  br label %5, !llvm.loop !44

120:                                              ; preds = %116
  %121 = load i32, ptr %4, align 4
  %122 = icmp ne i32 %121, 0
  br i1 %122, label %123, label %135

123:                                              ; preds = %120
  %124 = load ptr, ptr %2, align 8
  %125 = load ptr, ptr %2, align 8
  %126 = load i32, ptr %4, align 4
  %127 = zext i32 %126 to i64
  %128 = getelementptr inbounds i8, ptr %125, i64 %127
  %129 = load ptr, ptr %2, align 8
  %130 = load i32, ptr %4, align 4
  %131 = zext i32 %130 to i64
  %132 = getelementptr inbounds i8, ptr %129, i64 %131
  %133 = call i64 @strlen(ptr noundef %132) #5
  %134 = add i64 %133, 1
  call void @llvm.memmove.p0.p0.i64(ptr align 1 %124, ptr align 1 %128, i64 %134, i1 false)
  br label %135

135:                                              ; preds = %123, %120
  ret void
}