; Function Attrs: nofree nounwind memory(argmem: readwrite) uwtable
define internal fastcc void @remove_subset_prefix(ptr nocapture noundef %0) unnamed_addr #15 {
  %2 = load i8, ptr %0, align 1
  %3 = add i8 %2, -65
  %or.cond45 = icmp ult i8 %3, 26
  br i1 %or.cond45, label %.lr.ph.preheader, label %.critedge.thread

.lr.ph.preheader:                                 ; preds = %1
  %4 = getelementptr inbounds i8, ptr %0, i64 1
  %5 = load i8, ptr %4, align 1
  %6 = add i8 %5, -65
  %or.cond3968 = icmp ult i8 %6, 26
  br i1 %or.cond3968, label %.lr.ph70, label %.critedge

.lr.ph:                                           ; preds = %42
  %7 = add i32 %.04669, 8
  %8 = zext i32 %7 to i64
  %9 = getelementptr inbounds i8, ptr %0, i64 %8
  %10 = load i8, ptr %9, align 1
  %11 = add i8 %10, -65
  %or.cond39 = icmp ult i8 %11, 26
  br i1 %or.cond39, label %.lr.ph70, label %.critedge.loopexit, !llvm.loop !45

.lr.ph70:                                         ; preds = %.lr.ph.preheader, %.lr.ph
  %.04669 = phi i32 [ %43, %.lr.ph ], [ 0, %.lr.ph.preheader ]
  %12 = phi i64 [ %44, %.lr.ph ], [ 0, %.lr.ph.preheader ]
  %13 = add i32 %.04669, 2
  %14 = zext i32 %13 to i64
  %15 = getelementptr inbounds i8, ptr %0, i64 %14
  %16 = load i8, ptr %15, align 1
  %17 = add i8 %16, -65
  %or.cond40 = icmp ult i8 %17, 26
  br i1 %or.cond40, label %18, label %.critedge.loopexit

18:                                               ; preds = %.lr.ph70
  %19 = add i32 %.04669, 3
  %20 = zext i32 %19 to i64
  %21 = getelementptr inbounds i8, ptr %0, i64 %20
  %22 = load i8, ptr %21, align 1
  %23 = add i8 %22, -65
  %or.cond41 = icmp ult i8 %23, 26
  br i1 %or.cond41, label %24, label %.critedge.loopexit

24:                                               ; preds = %18
  %25 = add i32 %.04669, 4
  %26 = zext i32 %25 to i64
  %27 = getelementptr inbounds i8, ptr %0, i64 %26
  %28 = load i8, ptr %27, align 1
  %29 = add i8 %28, -65
  %or.cond42 = icmp ult i8 %29, 26
  br i1 %or.cond42, label %30, label %.critedge.loopexit

30:                                               ; preds = %24
  %31 = add i32 %.04669, 5
  %32 = zext i32 %31 to i64
  %33 = getelementptr inbounds i8, ptr %0, i64 %32
  %34 = load i8, ptr %33, align 1
  %35 = add i8 %34, -65
  %or.cond43 = icmp ult i8 %35, 26
  br i1 %or.cond43, label %36, label %.critedge.loopexit

36:                                               ; preds = %30
  %37 = add i32 %.04669, 6
  %38 = zext i32 %37 to i64
  %39 = getelementptr inbounds i8, ptr %0, i64 %38
  %40 = load i8, ptr %39, align 1
  %41 = icmp eq i8 %40, 43
  br i1 %41, label %42, label %.critedge.loopexit

42:                                               ; preds = %36
  %43 = add i32 %.04669, 7
  %44 = zext i32 %43 to i64
  %45 = getelementptr inbounds i8, ptr %0, i64 %44
  %46 = load i8, ptr %45, align 1
  %47 = add i8 %46, -65
  %or.cond = icmp ult i8 %47, 26
  br i1 %or.cond, label %.lr.ph, label %.critedge.loopexit, !llvm.loop !45

.critedge.loopexit:                               ; preds = %36, %42, %.lr.ph, %.lr.ph70, %18, %24, %30
  %.lcssa44.ph.ph = phi i64 [ %12, %30 ], [ %12, %24 ], [ %12, %18 ], [ %12, %.lr.ph70 ], [ %44, %.lr.ph ], [ %44, %42 ], [ %12, %36 ]
  %.0.lcssa.ph.ph = phi i32 [ %.04669, %30 ], [ %.04669, %24 ], [ %.04669, %18 ], [ %.04669, %.lr.ph70 ], [ %43, %.lr.ph ], [ %43, %42 ], [ %.04669, %36 ]
  %48 = icmp eq i32 %.0.lcssa.ph.ph, 0
  br label %.critedge

.critedge:                                        ; preds = %.critedge.loopexit, %.lr.ph.preheader
  %.lcssa44.ph = phi i64 [ 0, %.lr.ph.preheader ], [ %.lcssa44.ph.ph, %.critedge.loopexit ]
  %.0.lcssa.ph = phi i1 [ true, %.lr.ph.preheader ], [ %48, %.critedge.loopexit ]
  br i1 %.0.lcssa.ph, label %.critedge.thread, label %49

49:                                               ; preds = %.critedge
  %50 = getelementptr inbounds i8, ptr %0, i64 %.lcssa44.ph
  %51 = tail call i64 @strlen(ptr noundef nonnull dereferenceable(1) %50) #21
  %52 = add i64 %51, 1
  tail call void @llvm.memmove.p0.p0.i64(ptr nonnull align 1 %0, ptr nonnull align 1 %50, i64 %52, i1 false)
  br label %.critedge.thread

.critedge.thread:                                 ; preds = %1, %49, %.critedge
  ret void
}